; Function Attrs: mustprogress uwtable
define void @_ZN23VisibilityCheck_VMV200215checkVisibilityEv(ptr noundef nonnull align 8 dereferenceable(112) %0) unnamed_addr #1 align 2 personality ptr @__gxx_personality_v0 {
  %2 = alloca %"class.std::vector", align 8
  call void @llvm.memset.p0.i64(ptr noundef nonnull align 8 dereferenceable(24) %2, i8 0, i64 24, i1 false)
  invoke void @_ZN23VisibilityCheck_VMV20024initERSt6vectorIhSaIhEE(ptr noundef nonnull align 8 dereferenceable(112) %0, ptr noundef nonnull align 8 dereferenceable(24) %2)
          to label %.preheader unwind label %.loopexit.split-lp

.preheader:                                       ; preds = %1, %4
  %3 = invoke noundef zeroext i1 @_ZN23VisibilityCheck_VMV20029iterationERSt6vectorIhSaIhEE(ptr noundef nonnull align 8 dereferenceable(112) %0, ptr noundef nonnull align 8 dereferenceable(24) %2)
          to label %4 unwind label %.loopexit

4:                                                ; preds = %.preheader
  br i1 %3, label %.preheader, label %8, !llvm.loop !5

.loopexit:                                        ; preds = %.preheader
  %lpad.loopexit = landingpad { ptr, i32 }
          cleanup
  br label %5

.loopexit.split-lp:                               ; preds = %1, %8, %.noexc, %.noexc2, %.noexc3, %.noexc4, %.noexc5, %.noexc6, %.noexc7
  %lpad.loopexit.split-lp = landingpad { ptr, i32 }
          cleanup
  br label %5

5:                                                ; preds = %.loopexit.split-lp, %.loopexit
  %lpad.phi = phi { ptr, i32 } [ %lpad.loopexit, %.loopexit ], [ %lpad.loopexit.split-lp, %.loopexit.split-lp ]
  %6 = load ptr, ptr %2, align 8
  %.not.i.i.i = icmp eq ptr %6, null
  br i1 %.not.i.i.i, label %_ZNSt6vectorIhSaIhEED2Ev.exit, label %7

7:                                                ; preds = %5
  call void @_ZdlPv(ptr noundef nonnull %6) #22
  br label %_ZNSt6vectorIhSaIhEED2Ev.exit

_ZNSt6vectorIhSaIhEED2Ev.exit:                    ; preds = %5, %7
  resume { ptr, i32 } %lpad.phi

8:                                                ; preds = %4
  invoke void @glPushAttrib(i32 noundef 4096)
          to label %.noexc unwind label %.loopexit.split-lp

.noexc:                                           ; preds = %8
  invoke void @glMatrixMode(i32 noundef 5888)
          to label %.noexc2 unwind label %.loopexit.split-lp

.noexc2:                                          ; preds = %.noexc
  invoke void @glPopMatrix()
          to label %.noexc3 unwind label %.loopexit.split-lp

.noexc3:                                          ; preds = %.noexc2
  invoke void @glMatrixMode(i32 noundef 5889)
          to label %.noexc4 unwind label %.loopexit.split-lp

.noexc4:                                          ; preds = %.noexc3
  invoke void @glPopMatrix()
          to label %.noexc5 unwind label %.loopexit.split-lp

.noexc5:                                          ; preds = %.noexc4
  invoke void @glPopAttrib()
          to label %.noexc6 unwind label %.loopexit.split-lp

.noexc6:                                          ; preds = %.noexc5
  %9 = getelementptr inbounds i8, ptr %0, i64 8
  %10 = load ptr, ptr %9, align 8
  invoke void @_ZN3glw7Context25unbindReadDrawFramebufferEv(ptr noundef nonnull align 8 dereferenceable(120) %10)
          to label %.noexc7 unwind label %.loopexit.split-lp

.noexc7:                                          ; preds = %.noexc6
  invoke void @glPopAttrib()
          to label %_ZN23VisibilityCheck_VMV20027releaseEv.exit unwind label %.loopexit.split-lp

_ZN23VisibilityCheck_VMV20027releaseEv.exit:      ; preds = %.noexc7
  %11 = load ptr, ptr %2, align 8
  %.not.i.i.i9 = icmp eq ptr %11, null
  br i1 %.not.i.i.i9, label %_ZNSt6vectorIhSaIhEED2Ev.exit10, label %12

12:                                               ; preds = %_ZN23VisibilityCheck_VMV20027releaseEv.exit
  call void @_ZdlPv(ptr noundef nonnull %11) #22
  br label %_ZNSt6vectorIhSaIhEED2Ev.exit10

_ZNSt6vectorIhSaIhEED2Ev.exit10:                  ; preds = %_ZN23VisibilityCheck_VMV20027releaseEv.exit, %12
  ret void
}